target datalayout = "e-m:e-p270:32:32-p271:32:32-p272:64:64-i64:64-i128:128-f80:128-n8:16:32:64-S128"
target triple = "x86_64-pc-linux-gnu"

%"class.llvm::SmallVectorBase" = type { ptr, i32, i32 }
%"struct.std::pair.1127" = type <{ i32, i8, [3 x i8] }>

; Function Attrs: mustprogress nounwind uwtable
define linkonce_odr hidden noundef ptr @_ZNK4llvm25SmallVectorTemplateCommonISt4pairIN5clang4attr16SubjectMatchRuleEbEvE10getFirstElEv(ptr noundef nonnull align 8 dereferenceable(16) %0) #0 comdat align 2 {
  %2 = alloca ptr, align 8
  store ptr %0, ptr %2, align 8
  %3 = load ptr, ptr %2, align 8
  %4 = getelementptr inbounds i8, ptr %3, i64 16
  ret ptr %4
}

; Function Attrs: mustprogress nounwind uwtable
define linkonce_odr hidden void @_ZN4llvm25SmallVectorTemplateCommonISt4pairIN5clang4attr16SubjectMatchRuleEbEvE8grow_podEmm(ptr noundef nonnull align 8 dereferenceable(16) %0, i64 noundef %1, i64 noundef %2) #0 comdat align 2 {
  %4 = alloca ptr, align 8
  %5 = alloca i64, align 8
  %6 = alloca i64, align 8
  store ptr %0, ptr %4, align 8
  store i64 %1, ptr %5, align 8
  store i64 %2, ptr %6, align 8
  %7 = load ptr, ptr %4, align 8
  %8 = call noundef ptr @_ZNK4llvm25SmallVectorTemplateCommonISt4pairIN5clang4attr16SubjectMatchRuleEbEvE10getFirstElEv(ptr noundef nonnull align 8 dereferenceable(16) %7)
  %9 = load i64, ptr %5, align 8
  %10 = load i64, ptr %6, align 8
  call void @_ZN4llvm15SmallVectorBaseIjE8grow_podEPvmm(ptr noundef nonnull align 8 dereferenceable(16) %7, ptr noundef %8, i64 noundef %9, i64 noundef %10)
  ret void
}

; Function Attrs: mustprogress nounwind uwtable
define linkonce_odr hidden void @_ZN4llvm23SmallVectorTemplateBaseISt4pairIN5clang4attr16SubjectMatchRuleEbELb1EE4growEm(ptr noundef nonnull align 8 dereferenceable(16) %0, i64 noundef %1) #0 comdat align 2 {
  %3 = alloca ptr, align 8
  %4 = alloca i64, align 8
  store ptr %0, ptr %3, align 8
  store i64 %1, ptr %4, align 8
  %5 = load ptr, ptr %3, align 8
  %6 = load i64, ptr %4, align 8
  call void @_ZN4llvm25SmallVectorTemplateCommonISt4pairIN5clang4attr16SubjectMatchRuleEbEvE8grow_podEmm(ptr noundef nonnull align 8 dereferenceable(16) %5, i64 noundef %6, i64 noundef 8)
  ret void
}

; Function Attrs: mustprogress nounwind uwtable
define linkonce_odr hidden noundef ptr @_ZN4llvm25SmallVectorTemplateCommonISt4pairIN5clang4attr16SubjectMatchRuleEbEvE5beginEv(ptr noundef nonnull align 8 dereferenceable(16) %0) #0 comdat align 2 {
  %2 = alloca ptr, align 8
  store ptr %0, ptr %2, align 8
  %3 = load ptr, ptr %2, align 8
  %4 = getelementptr inbounds nuw %"class.llvm::SmallVectorBase", ptr %3, i32 0, i32 0
  %5 = load ptr, ptr %4, align 8
  ret ptr %5
}

; Function Attrs: mustprogress nounwind uwtable
define linkonce_odr hidden noundef ptr @_ZN4llvm25SmallVectorTemplateCommonISt4pairIN5clang4attr16SubjectMatchRuleEbEvE32reserveForParamAndGetAddressImplINS_23SmallVectorTemplateBaseIS5_Lb1EEEEEPKS5_PT_RSA_m(ptr noundef %0, ptr noundef nonnull align 4 dereferenceable(5) %1, i64 noundef %2) #0 comdat align 2 {
  %4 = alloca ptr, align 8
  %5 = alloca ptr, align 8
  %6 = alloca ptr, align 8
  %7 = alloca i64, align 8
  %8 = alloca i64, align 8
  %9 = alloca i8, align 1
  %10 = alloca i64, align 8
  store ptr %0, ptr %5, align 8
  store ptr %1, ptr %6, align 8
  store i64 %2, ptr %7, align 8
  %11 = load ptr, ptr %5, align 8
  %12 = call noundef i64 @_ZNK4llvm15SmallVectorBaseIjE4sizeEv(ptr noundef nonnull align 8 dereferenceable(16) %11)
  %13 = load i64, ptr %7, align 8
  %14 = add i64 %12, %13
  store i64 %14, ptr %8, align 8
  %15 = load i64, ptr %8, align 8
  %16 = load ptr, ptr %5, align 8
  %17 = call noundef i64 @_ZNK4llvm15SmallVectorBaseIjE8capacityEv(ptr noundef nonnull align 8 dereferenceable(16) %16)
  %18 = icmp ule i64 %15, %17
  br i1 %18, label %19, label %21

19:                                               ; preds = %3
  %20 = load ptr, ptr %6, align 8
  store ptr %20, ptr %4, align 8
  br label %35

21:                                               ; preds = %3
  store i8 0, ptr %9, align 1
  store i64 -1, ptr %10, align 8
  %22 = load ptr, ptr %5, align 8
  %23 = load i64, ptr %8, align 8
  call void @_ZN4llvm23SmallVectorTemplateBaseISt4pairIN5clang4attr16SubjectMatchRuleEbELb1EE4growEm(ptr noundef nonnull align 8 dereferenceable(16) %22, i64 noundef %23)
  %24 = load i8, ptr %9, align 1
  %25 = trunc i8 %24 to i1
  br i1 %25, label %26, label %31

26:                                               ; preds = %21
  %27 = load ptr, ptr %5, align 8
  %28 = call noundef ptr @_ZN4llvm25SmallVectorTemplateCommonISt4pairIN5clang4attr16SubjectMatchRuleEbEvE5beginEv(ptr noundef nonnull align 8 dereferenceable(16) %27)
  %29 = load i64, ptr %10, align 8
  %30 = getelementptr inbounds %"struct.std::pair.1127", ptr %28, i64 %29
  br label %33

31:                                               ; preds = %21
  %32 = load ptr, ptr %6, align 8
  br label %33

33:                                               ; preds = %31, %26
  %34 = phi ptr [ %30, %26 ], [ %32, %31 ]
  store ptr %34, ptr %4, align 8
  br label %35

35:                                               ; preds = %33, %19
  %36 = load ptr, ptr %4, align 8
  ret ptr %36
}

; Function Attrs: mustprogress nounwind uwtable
define linkonce_odr hidden noundef ptr @_ZN4llvm25SmallVectorTemplateCommonISt4pairIN5clang4attr16SubjectMatchRuleEbEvE3endEv(ptr noundef nonnull align 8 dereferenceable(16) %0) #0 comdat align 2 {
  %2 = alloca ptr, align 8
  store ptr %0, ptr %2, align 8
  %3 = load ptr, ptr %2, align 8
  %4 = call noundef ptr @_ZN4llvm25SmallVectorTemplateCommonISt4pairIN5clang4attr16SubjectMatchRuleEbEvE5beginEv(ptr noundef nonnull align 8 dereferenceable(16) %3)
  %5 = call noundef i64 @_ZNK4llvm15SmallVectorBaseIjE4sizeEv(ptr noundef nonnull align 8 dereferenceable(16) %3)
  %6 = getelementptr inbounds %"struct.std::pair.1127", ptr %4, i64 %5
  ret ptr %6
}

; Function Attrs: mustprogress nounwind uwtable
define linkonce_odr hidden noundef ptr @_ZN4llvm23SmallVectorTemplateBaseISt4pairIN5clang4attr16SubjectMatchRuleEbELb1EE28reserveForParamAndGetAddressERS5_m(ptr noundef nonnull align 8 dereferenceable(16) %0, ptr noundef nonnull align 4 dereferenceable(5) %1, i64 noundef %2) #0 comdat align 2 {
  %4 = alloca ptr, align 8
  %5 = alloca ptr, align 8
  %6 = alloca i64, align 8
  store ptr %0, ptr %4, align 8
  store ptr %1, ptr %5, align 8
  store i64 %2, ptr %6, align 8
  %7 = load ptr, ptr %4, align 8
  %8 = load ptr, ptr %5, align 8
  %9 = load i64, ptr %6, align 8
  %10 = call noundef ptr @_ZN4llvm25SmallVectorTemplateCommonISt4pairIN5clang4attr16SubjectMatchRuleEbEvE32reserveForParamAndGetAddressImplINS_23SmallVectorTemplateBaseIS5_Lb1EEEEEPKS5_PT_RSA_m(ptr noundef %7, ptr noundef nonnull align 4 dereferenceable(5) %8, i64 noundef %9)
  ret ptr %10
}

; Function Attrs: mustprogress nounwind uwtable
define linkonce_odr hidden void @_ZNSt4pairIN5clang4attr16SubjectMatchRuleEbEC2IS2_bTnNSt9enable_ifIXaaclsr5_PCCPE22_MoveConstructiblePairIT_T0_EEclsr5_PCCPE30_ImplicitlyMoveConvertiblePairIS6_S7_EEEbE4typeELb1EEEOS6_OS7_(ptr noundef nonnull align 4 dereferenceable(5) %0, ptr noundef nonnull align 4 dereferenceable(4) %1, ptr noundef nonnull align 1 dereferenceable(1) %2) unnamed_addr #0 comdat align 2 {
  %4 = alloca ptr, align 8
  %5 = alloca ptr, align 8
  %6 = alloca ptr, align 8
  store ptr %0, ptr %4, align 8
  store ptr %1, ptr %5, align 8
  store ptr %2, ptr %6, align 8
  %7 = load ptr, ptr %4, align 8
  %8 = getelementptr inbounds nuw %"struct.std::pair.1127", ptr %7, i32 0, i32 0
  %9 = load ptr, ptr %5, align 8
  %10 = load i32, ptr %9, align 4
  store i32 %10, ptr %8, align 4
  %11 = getelementptr inbounds nuw %"struct.std::pair.1127", ptr %7, i32 0, i32 1
  %12 = load ptr, ptr %6, align 8
  %13 = load i8, ptr %12, align 1
  %14 = trunc i8 %13 to i1
  %15 = zext i1 %14 to i8
  store i8 %15, ptr %11, align 4
  ret void
}

; Function Attrs: mustprogress nounwind uwtable
define linkonce_odr hidden void @_ZN4llvm23SmallVectorTemplateBaseISt4pairIN5clang4attr16SubjectMatchRuleEbELb1EE9push_backES5_(ptr noundef nonnull align 8 dereferenceable(16) %0, i64 %1) #0 comdat align 2 {
  %3 = alloca %"struct.std::pair.1127", align 4
  %4 = alloca ptr, align 8
  %5 = alloca ptr, align 8
  store i64 %1, ptr %3, align 4
  store ptr %0, ptr %4, align 8
  %6 = load ptr, ptr %4, align 8
  %7 = call noundef ptr @_ZN4llvm23SmallVectorTemplateBaseISt4pairIN5clang4attr16SubjectMatchRuleEbELb1EE28reserveForParamAndGetAddressERS5_m(ptr noundef nonnull align 8 dereferenceable(16) %6, ptr noundef nonnull align 4 dereferenceable(5) %3, i64 noundef 1)
  store ptr %7, ptr %5, align 8
  %8 = call noundef ptr @_ZN4llvm25SmallVectorTemplateCommonISt4pairIN5clang4attr16SubjectMatchRuleEbEvE3endEv(ptr noundef nonnull align 8 dereferenceable(16) %6)
  %9 = load ptr, ptr %5, align 8
  call void @llvm.memcpy.p0.p0.i64(ptr align 1 %8, ptr align 4 %9, i64 8, i1 false)
  %10 = call noundef i64 @_ZNK4llvm15SmallVectorBaseIjE4sizeEv(ptr noundef nonnull align 8 dereferenceable(16) %6)
  %11 = add i64 %10, 1
  call void @_ZN4llvm15SmallVectorBaseIjE8set_sizeEm(ptr noundef nonnull align 8 dereferenceable(16) %6, i64 noundef %11)
  ret void
}

; Function Attrs: mustprogress nounwind uwtable
define linkonce_odr i64 @_ZSt9make_pairIN5clang4attr16SubjectMatchRuleEbESt4pairINSt25__strip_reference_wrapperINSt5decayIT_E4typeEE6__typeENS4_INS5_IT0_E4typeEE6__typeEEOS6_OSB_(ptr noundef nonnull align 4 dereferenceable(4) %0, ptr noundef nonnull align 1 dereferenceable(1) %1) #0 comdat {
  %3 = alloca %"struct.std::pair.1127", align 4
  %4 = alloca ptr, align 8
  %5 = alloca ptr, align 8
  store ptr %0, ptr %4, align 8
  store ptr %1, ptr %5, align 8
  %6 = load ptr, ptr %4, align 8
  %7 = load ptr, ptr %5, align 8
  call void @_ZNSt4pairIN5clang4attr16SubjectMatchRuleEbEC2IS2_bTnNSt9enable_ifIXaaclsr5_PCCPE22_MoveConstructiblePairIT_T0_EEclsr5_PCCPE30_ImplicitlyMoveConvertiblePairIS6_S7_EEEbE4typeELb1EEEOS6_OS7_(ptr noundef nonnull align 4 dereferenceable(5) %3, ptr noundef nonnull align 4 dereferenceable(4) %6, ptr noundef nonnull align 1 dereferenceable(1) %7)
  %8 = load i64, ptr %3, align 4
  ret i64 %8
}

; Function Attrs: mustprogress nounwind uwtable
define internal void @_ZNK12_GLOBAL__N_124ParsedAttrInfoCapability28getPragmaAttributeMatchRulesERN4llvm15SmallVectorImplISt4pairIN5clang4attr16SubjectMatchRuleEbEEERKNS4_11LangOptionsE(ptr noundef nonnull align 8 dereferenceable(48) %0, ptr noundef nonnull align 8 dereferenceable(16) %1, ptr noundef nonnull align 8 dereferenceable(841) %2) unnamed_addr #0 align 2 {
  %4 = alloca ptr, align 8
  %5 = alloca ptr, align 8
  %6 = alloca ptr, align 8
  %7 = alloca %"struct.std::pair.1127", align 4
  %8 = alloca i32, align 4
  %9 = alloca i8, align 1
  %10 = alloca %"struct.std::pair.1127", align 4
  %11 = alloca i32, align 4
  %12 = alloca i8, align 1
  store ptr %0, ptr %4, align 8
  store ptr %1, ptr %5, align 8
  store ptr %2, ptr %6, align 8
  %13 = load ptr, ptr %5, align 8
  store i32 14, ptr %8, align 4
  store i8 1, ptr %9, align 1
  %14 = call i64 @_ZSt9make_pairIN5clang4attr16SubjectMatchRuleEbESt4pairINSt25__strip_reference_wrapperINSt5decayIT_E4typeEE6__typeENS4_INS5_IT0_E4typeEE6__typeEEOS6_OSB_(ptr noundef nonnull align 4 dereferenceable(4) %8, ptr noundef nonnull align 1 dereferenceable(1) %9)
  %15 = trunc i64 %14 to i40
  store i40 %15, ptr %7, align 4
  %16 = load i64, ptr %7, align 4
  call void @_ZN4llvm23SmallVectorTemplateBaseISt4pairIN5clang4attr16SubjectMatchRuleEbELb1EE9push_backES5_(ptr noundef nonnull align 8 dereferenceable(16) %13, i64 %16)
  %17 = load ptr, ptr %5, align 8
  store i32 18, ptr %11, align 4
  store i8 1, ptr %12, align 1
  %18 = call i64 @_ZSt9make_pairIN5clang4attr16SubjectMatchRuleEbESt4pairINSt25__strip_reference_wrapperINSt5decayIT_E4typeEE6__typeENS4_INS5_IT0_E4typeEE6__typeEEOS6_OSB_(ptr noundef nonnull align 4 dereferenceable(4) %11, ptr noundef nonnull align 1 dereferenceable(1) %12)
  %19 = trunc i64 %18 to i40
  store i40 %19, ptr %10, align 4
  %20 = load i64, ptr %10, align 4
  call void @_ZN4llvm23SmallVectorTemplateBaseISt4pairIN5clang4attr16SubjectMatchRuleEbELb1EE9push_backES5_(ptr noundef nonnull align 8 dereferenceable(16) %17, i64 %20)
  ret void
}